HI-TECH Software C Compiler 

Linker command line:

-W-1 \
  --edf=C:\Program Files (x86)\HI-TECH Software\PICC\9.83\dat\en_msgs.txt \
  -cs -h+dist/default/production\RotDisplay.X.production.sym -z -Q16F819 \
  -ol.obj -Mdist/default/production/RotDisplay.X.production.map -E1 \
  -ACONST=00h-0FFhx8 -ACODE=00h-07FFh -ASTRCODE=00h-07FFh \
  -AENTRY=00h-0FFhx8 -ASTRING=00h-0FFhx8 -ABANK0=020h-06Fh \
  -ABANK1=0A0h-0EFh -ABANK2=0120h-016Fh \
  -ARAM=020h-06Fh,0A0h-0EFh,0120h-016Fh \
  -AABS1=020h-07Fh,0A0h-0EFh,0120h-016Fh -ACOMMON=070h-07Fh -ASFR0=00h-01Fh \
  -ASFR1=080h-09Fh -ASFR2=0100h-011Fh -ASFR3=0180h-01EFh \
  -preset_vec=00h,intentry=04h,init,end_init -ppowerup=CODE -pfunctab=CODE \
  -ACONFIG=02007h-02007h -pconfig=CONFIG -DCONFIG=2 -AIDLOC=02000h-02003h \
  -pidloc=IDLOC -DIDLOC=2 -AEEDATA=00h-0FFh/02100h -peeprom_data=EEDATA \
  -DEEDATA=2 -DCODE=2 -DSTRCODE=2 -DSTRING=2 -DCONST=2 -DENTRY=2 -k \
  C:\Users\vyvoj\AppData\Local\Temp\s3ek.obj \
  dist/default/production\RotDisplay.X.production.obj 

Object code version is 3.10

Machine type is 16F819



                Name                               Link     Load   Length Selector   Space Scale
C:\Users\vyvoj\AppData\Local\Temp\s3ek.obj
                end_init                             10       10        1        8       0
                reset_vec                             0        0        1        0       0
dist/default/production\RotDisplay.X.production.obj
                intentry                              4        4        C        8       0
                config                             2007     2007        1     400E       0
                text886                             52B      52B       27        8       0
                text885                             641      641        A        8       0
                text884                             637      637        A        8       0
                text883                             60D      60D       16        8       0
                text882                             59E      59E       22        8       0
                text881                             660      660        6        8       0
                text880                             1B4      1B4       7B        8       0
                text879                             578      578       26        8       0
                text878                             552      552       26        8       0
                text877                             437      437       38        8       0
                text876                             5F5      5F5       18        8       0
                text875                             3A7      3A7       49        8       0
                text874                             65A      65A        6        8       0
                text873                             46F      46F       34        8       0
                text872                             501      501       2A        8       0
                text871                             653      653        7        8       0
                text870                             137      137       7D        8       0
                text869                             2FC      2FC       5C        8       0
                text868                             358      358       4F        8       0
                text867                             29A      29A       62        8       0
                text866                             3F0      3F0       47        8       0
                swtext1                               1        1        3        2       0
                text865                             22F      22F       6B        8       0
                text864                             5DB      5DB       1A        8       0
                text863                             4D4      4D4       2D        8       0
                text862                             5C0      5C0       1B        8       0
                maintext                             11       11      126        8       0
                cstackBANK0                          20       20       26       20       1
                cstackCOMMON                         70       70        8       70       1
                clrtext                             64B      64B        8        8       0
                dataBANK0                            46       46       14       20       1
                bssBANK0                             5A       5A        C       20       1
                bssCOMMON                            79       79        1       70       1
                bitbssCOMMON                        3C0       78        6       70       1     8
                cinit                               4A3      4A3       31        8       0
                idataBANK0                          623      623       14        8       0

TOTAL           Name                               Link     Load   Length     Space
        CLASS   CONST          
                swtext1                               1        1        3         0

        CLASS   CODE           
                end_init                             10       10        1         0
                intentry                              4        4        C         0
                reset_vec                             0        0        1         0
                text886                             52B      52B       27         0
                text885                             641      641        A         0
                text884                             637      637        A         0
                text883                             60D      60D       16         0
                text882                             59E      59E       22         0
                text881                             660      660        6         0
                text880                             1B4      1B4       7B         0
                text879                             578      578       26         0
                text878                             552      552       26         0
                text877                             437      437       38         0
                text876                             5F5      5F5       18         0
                text875                             3A7      3A7       49         0
                text874                             65A      65A        6         0
                text873                             46F      46F       34         0
                text872                             501      501       2A         0
                text871                             653      653        7         0
                text870                             137      137       7D         0
                text869                             2FC      2FC       5C         0
                text868                             358      358       4F         0
                text867                             29A      29A       62         0
                text866                             3F0      3F0       47         0
                text865                             22F      22F       6B         0
                text864                             5DB      5DB       1A         0
                text863                             4D4      4D4       2D         0
                text862                             5C0      5C0       1B         0
                maintext                             11       11      126         0
                clrtext                             64B      64B        8         0
                cinit                               4A3      4A3       31         0
                idataBANK0                          623      623       14         0

        CLASS   STRCODE        

        CLASS   ENTRY          

        CLASS   STRING         

        CLASS   BANK0          
                cstackBANK0                          20       20       26         1
                dataBANK0                            46       46       14         1
                bssBANK0                             5A       5A        C         1

        CLASS   BANK1          

        CLASS   BANK2          

        CLASS   RAM            

        CLASS   ABS1           
                abs_s1                               7E       7E        2         1

        CLASS   COMMON         
                cstackCOMMON                         70       70        8         1
                bssCOMMON                            79       79        1         1
                bitbssCOMMON                        3C0       78        6         1

        CLASS   SFR0           

        CLASS   SFR1           

        CLASS   SFR2           

        CLASS   SFR3           

        CLASS   CONFIG         
                config                             2007     2007        1         0

        CLASS   IDLOC          

        CLASS   EEDATA         

        CLASS   BANK3          



SEGMENTS        Name                           Load    Length   Top    Selector   Space  Class     Delta

                reset_vec                      000000  000001  000001         0       0  CODE        2
                swtext1                        000001  000003  000004         2       0  CONST       2
                intentry                       000004  000662  000666         8       0  CODE        2
                cstackBANK0                    000020  000046  000066        20       1  BANK0       1
                cstackCOMMON                   000070  00000A  00007A        70       1  COMMON      1
                config                         002007  000001  002008      400E       0  CONFIG      2


UNUSED ADDRESS RANGES

        Name                Unused          Largest block    Delta
        BANK0            0066-006F              A           1
        BANK1            00A0-00EF             50           1
        BANK2            0120-016F             50           1
        CODE             0666-07FF            19A           2
        COMMON           007A-007D              4           1
        CONST            0666-07FF             9A           2
        EEDATA           2100-21FF            100           2
        ENTRY            0666-07FF             9A           2
        IDLOC            2000-2003              4           2
        RAM              0066-006F              A           1
                         00A0-00EF             50
                         0120-016F             50
        SFR0             0000-001F             20           1
        SFR1             0080-009F             20           1
        SFR2             0100-011F             20           1
        SFR3             0180-01EF             70           1
        STRCODE          0666-07FF            19A           2
        STRING           0666-07FF             9A           2

                                  Symbol Table

??___bmul                   cstackCOMMON 0075
??_application_reset        cstackCOMMON 0078
??_bit_off                  cstackCOMMON 0074
??_bit_on                   cstackCOMMON 0074
??_i2c_check_ack            cstackCOMMON 0074
??_i2c_read                 cstackBANK0  0024
??_i2c_read_bit             cstackCOMMON 0074
??_i2c_read_byte            cstackCOMMON 0076
??_i2c_write                cstackCOMMON 0077
??_i2c_write_bit            cstackCOMMON 0074
??_i2c_write_byte           cstackCOMMON 0076
??_init                     cstackCOMMON 0078
??_init_normal              cstackCOMMON 0078
??_init_setup               cstackCOMMON 0074
??_interrupt_handler        cstackCOMMON 0070
??_main                     cstackBANK0  003F
??_next_minute              cstackCOMMON 0074
??_next_segment             cstackBANK0  0024
??_rtc_setup                cstackBANK0  0025
??_set_it_faster            cstackCOMMON 0074
??_shift_send               cstackCOMMON 0078
??_shift_show               cstackCOMMON 0076
??_shift_write              cstackCOMMON 0076
??_sync                     cstackBANK0  002C
??_wait_for_event           cstackCOMMON 0074
??_what_time_is_now         cstackBANK0  0027
?___bmul                    cstackCOMMON 0074
?_application_reset         cstackCOMMON 0070
?_bit_off                   cstackCOMMON 0070
?_bit_on                    cstackCOMMON 0070
?_i2c_check_ack             cstackCOMMON 0070
?_i2c_read                  cstackBANK0  0022
?_i2c_read_bit              cstackCOMMON 0070
?_i2c_read_byte             cstackCOMMON 0070
?_i2c_write                 cstackBANK0  0022
?_i2c_write_bit             cstackCOMMON 0070
?_i2c_write_byte            cstackCOMMON 0070
?_init                      cstackCOMMON 0070
?_init_normal               cstackCOMMON 0070
?_init_setup                cstackCOMMON 0070
?_interrupt_handler         cstackCOMMON 0070
?_main                      cstackCOMMON 0070
?_next_minute               cstackCOMMON 0070
?_next_segment              cstackCOMMON 0070
?_rtc_setup                 cstackCOMMON 0070
?_set_it_faster             cstackCOMMON 0070
?_shift_send                cstackCOMMON 0070
?_shift_show                cstackCOMMON 0070
?_shift_write               cstackCOMMON 0070
?_sync                      cstackCOMMON 0070
?_wait_for_event            cstackCOMMON 0070
?_what_time_is_now          cstackCOMMON 0070
_ADCON1                     (abs)        009F
_CARRY                      (abs)        0018
_EEADR                      (abs)        010D
_EECON1                     (abs)        018C
_EECON2                     (abs)        018D
_EEDATA                     (abs)        010C
_GIE                        (abs)        005F
_INTE                       (abs)        005C
_IOFS                       (abs)        047A
_OSCCONbits                 (abs)        008F
_PEIE                       (abs)        005E
_PORTA                      (abs)        0005
_RA6                        (abs)        002E
_RB1                        (abs)        0031
_RB3                        (abs)        0033
_RB4                        (abs)        0034
_RB5                        (abs)        0035
_RB7                        (abs)        0037
_RBIE                       (abs)        005B
_RBIF                       (abs)        0058
_RD                         (abs)        0C60
_T0CS                       (abs)        040D
_T1CON                      (abs)        0010
_TMR0                       (abs)        0001
_TMR0IE                     (abs)        005D
_TMR0IF                     (abs)        005A
_TMR1H                      (abs)        000F
_TMR1IE                     (abs)        0460
_TMR1IF                     (abs)        0060
_TMR1L                      (abs)        000E
_TMR1ON                     (abs)        0080
_TRISA                      (abs)        0085
_TRISB                      (abs)        0086
_TRISB1                     (abs)        0431
_TRISB4                     (abs)        0434
_WR                         (abs)        0C61
_WREN                       (abs)        0C62
__Habs1                     abs1         0000
__Hbank0                    bank0        0000
__Hbank1                    bank1        0000
__Hbank2                    bank2        0000
__Hbank3                    bank3        0000
__HbitbssCOMMON             bitbssCOMMON 0000
__HbssBANK0                 bssBANK0     0000
__HbssCOMMON                bssCOMMON    0000
__Hcinit                    cinit        0000
__Hclrtext                  clrtext      0000
__Hcode                     code         0000
__Hcommon                   common       0000
__Hconfig                   config       2008
__HcstackBANK0              cstackBANK0  0000
__HcstackCOMMON             cstackCOMMON 0000
__HdataBANK0                dataBANK0    0000
__Heeprom_data              eeprom_data  0000
__Hend_init                 end_init     0011
__Hfunctab                  functab      0000
__HidataBANK0               idataBANK0   0000
__Hidloc                    idloc        0000
__Hinit                     init         0010
__Hintentry                 intentry     0010
__Hmaintext                 maintext     0000
__Hpowerup                  powerup      0000
__Hram                      ram          0000
__Hreset_vec                reset_vec    0001
__Hsfr0                     sfr0         0000
__Hsfr1                     sfr1         0000
__Hsfr2                     sfr2         0000
__Hsfr3                     sfr3         0000
__Hstrings                  strings      0000
__Htext                     text         0000
__Labs1                     abs1         0000
__Lbank0                    bank0        0000
__Lbank1                    bank1        0000
__Lbank2                    bank2        0000
__Lbank3                    bank3        0000
__LbitbssCOMMON             bitbssCOMMON 0000
__LbssBANK0                 bssBANK0     0000
__LbssCOMMON                bssCOMMON    0000
__Lcinit                    cinit        0000
__Lclrtext                  clrtext      0000
__Lcode                     code         0000
__Lcommon                   common       0000
__Lconfig                   config       2007
__LcstackBANK0              cstackBANK0  0000
__LcstackCOMMON             cstackCOMMON 0000
__LdataBANK0                dataBANK0    0000
__Leeprom_data              eeprom_data  0000
__Lend_init                 end_init     0010
__Lfunctab                  functab      0000
__LidataBANK0               idataBANK0   0000
__Lidloc                    idloc        0000
__Linit                     init         0010
__Lintentry                 intentry     0004
__Lmaintext                 maintext     0000
__Lpowerup                  powerup      0000
__Lram                      ram          0000
__Lreset_vec                reset_vec    0000
__Lsfr0                     sfr0         0000
__Lsfr1                     sfr1         0000
__Lsfr2                     sfr2         0000
__Lsfr3                     sfr3         0000
__Lstrings                  strings      0000
__Ltext                     text         0000
__S0                        (abs)        2008
__S1                        (abs)        007A
__S2                        (abs)        0000
___bmul                     text876      05F5
___bmul@multiplicand        cstackCOMMON 0074
___bmul@multiplier          cstackCOMMON 0077
___bmul@product             cstackCOMMON 0076
__a                         bitbssCOMMON 03C0
__b                         bitbssCOMMON 03C1
__end_of___bmul             text876      060D
__end_of_application_reset  text864      05F5
__end_of_bit_off            text884      0641
__end_of_bit_on             text885      064B
__end_of_i2c_check_ack      text877      046F
__end_of_i2c_read           text870      01B4
__end_of_i2c_read_bit       text878      0578
__end_of_i2c_read_byte      text872      052B
__end_of_i2c_write          text869      0358
__end_of_i2c_write_bit      text879      059E
__end_of_i2c_write_byte     text873      04A3
__end_of_init               text862      05DB
__end_of_init_normal        text863      0501
__end_of_init_setup         text881      0666
__end_of_interrupt_handler  text886      0552
__end_of_main               maintext     0137
__end_of_next_minute        text882      05C0
__end_of_next_segment       text867      02FC
__end_of_rtc_setup          text866      0437
__end_of_set_it_faster      text883      0623
__end_of_shift_send         text871      065A
__end_of_shift_show         text874      0660
__end_of_shift_write        text875      03F0
__end_of_sync               text865      029A
__end_of_wait_for_event     text880      022F
__end_of_what_time_is_now   text868      03A7
__pbitbssCOMMON             bitbssCOMMON 03C0
__pbssBANK0                 bssBANK0     005A
__pbssCOMMON                bssCOMMON    0079
__pcstackBANK0              cstackBANK0  0020
__pcstackCOMMON             cstackCOMMON 0070
__pdataBANK0                dataBANK0    0046
__pidataBANK0               idataBANK0   0623
__pintentry                 intentry     0004
__pmaintext                 maintext     0011
__pswtext1                  swtext1      0001
__ptext862                  text862      05C0
__ptext863                  text863      04D4
__ptext864                  text864      05DB
__ptext865                  text865      022F
__ptext866                  text866      03F0
__ptext867                  text867      029A
__ptext868                  text868      0358
__ptext869                  text869      02FC
__ptext870                  text870      0137
__ptext871                  text871      0653
__ptext872                  text872      0501
__ptext873                  text873      046F
__ptext874                  text874      065A
__ptext875                  text875      03A7
__ptext876                  text876      05F5
__ptext877                  text877      0437
__ptext878                  text878      0552
__ptext879                  text879      0578
__ptext880                  text880      01B4
__ptext881                  text881      0660
__ptext882                  text882      059E
__ptext883                  text883      060D
__ptext884                  text884      0637
__ptext885                  text885      0641
__ptext886                  text886      052B
__ptext887                  text887      0000
__size_of___bmul            (abs)        0000
__size_of_application_reset (abs)        0000
__size_of_bit_off           (abs)        0000
__size_of_bit_on            (abs)        0000
__size_of_i2c_check_ack     (abs)        0000
__size_of_i2c_read          (abs)        0000
__size_of_i2c_read_bit      (abs)        0000
__size_of_i2c_read_byte     (abs)        0000
__size_of_i2c_write         (abs)        0000
__size_of_i2c_write_bit     (abs)        0000
__size_of_i2c_write_byte    (abs)        0000
__size_of_init              (abs)        0000
__size_of_init_normal       (abs)        0000
__size_of_init_setup        (abs)        0000
__size_of_interrupt_handler (abs)        0000
__size_of_main              (abs)        0000
__size_of_next_minute       (abs)        0000
__size_of_next_segment      (abs)        0000
__size_of_rtc_setup         (abs)        0000
__size_of_set_it_faster     (abs)        0000
__size_of_shift_send        (abs)        0000
__size_of_shift_show        (abs)        0000
__size_of_shift_write       (abs)        0000
__size_of_sync              (abs)        0000
__size_of_wait_for_event    (abs)        0000
__size_of_what_time_is_now  (abs)        0000
_a_latch                    bssBANK0     005C
_application_reset          text864      05DB
_bit_off                    text884      0637
_bit_on                     text885      0641
_exit                       init         0010
_i2c_check_ack              text877      0437
_i2c_read                   text870      0137
_i2c_read_bit               text878      0552
_i2c_read_byte              text872      0501
_i2c_write                  text869      02FC
_i2c_write_bit              text879      0578
_i2c_write_byte             text873      046F
_init                       text862      05C0
_init_normal                text863      04D4
_init_setup                 text881      0660
_interrupt_handler          text886      052B
_last_clk                   bitbssCOMMON 03C2
_main                       maintext     0011
_mode                       bssBANK0     005D
_need_sync                  bitbssCOMMON 03C3
_need_update                bitbssCOMMON 03C4
_next_minute                text882      059E
_next_segment               text867      029A
_rtc_setup                  text866      03F0
_seg                        bssBANK0     005A
_seg_ticks_h                bssBANK0     005E
_seg_ticks_l                bssBANK0     005F
_set_it_faster              text883      060D
_shift_send                 text871      0653
_shift_show                 text874      065A
_shift_write                text875      03A7
_state                      bssBANK0     0060
_sync                       text865      022F
_time                       bssBANK0     0063
_tmr0_counter               bssBANK0     0061
_tmr1_counter               bssBANK0     0062
_updated                    bitbssCOMMON 03C5
_wait_for_event             text880      01B4
_what_time_is_now           text868      0358
bit_off@bt                  cstackCOMMON 0075
bit_on@bt                   cstackCOMMON 0075
btemp                       (abs)        007E
clear_ram                   clrtext      064B
end_of_initialization       cinit        04D2
i2c_check_ack@tmp           cstackCOMMON 0075
i2c_read@addr               cstackBANK0  0022
i2c_read@d                  cstackBANK0  0025
i2c_read@data               cstackBANK0  0023
i2c_read@dev                cstackBANK0  0026
i2c_read_bit@b              cstackCOMMON 0075
i2c_read_byte@data          cstackBANK0  0021
i2c_read_byte@i             cstackBANK0  0020
i2c_write@addr              cstackBANK0  0022
i2c_write@data              cstackBANK0  0023
i2c_write@dev               cstackBANK0  0024
i2c_write_bit@x             cstackCOMMON 0075
i2c_write_byte@byte         cstackBANK0  0020
i2c_write_byte@i            cstackBANK0  0021
interrupt_function          intentry     0004
interrupt_handler@c         bssCOMMON    0079
intlevel0                   functab      0000
intlevel1                   functab      0000
intlevel2                   functab      0000
intlevel3                   functab      0000
intlevel4                   functab      0000
intlevel5                   functab      0000
main@addr                   cstackBANK0  0043
main@ev                     cstackBANK0  0042
main@i                      cstackBANK0  0041
main@tmp                    cstackBANK0  0044
main@which                  cstackBANK0  0045
next_segment@data           cstackBANK0  0025
reset_vec                   reset_vec    0000
rtc_setup@F789              dataBANK0    0046
rtc_setup@i                 cstackBANK0  003E
rtc_setup@rv                cstackBANK0  003D
rtc_setup@table             cstackBANK0  0029
saved_w                     (abs)        007E
set_it_faster@how_much      cstackCOMMON 0074
shift_send@data             cstackBANK0  0023
shift_write@data            cstackBANK0  0020
shift_write@i               cstackBANK0  0021
start                       init         0010
start_initialization        cinit        04A3
wait_for_event@_i           cstackCOMMON 0076
wait_for_event@rv           cstackCOMMON 0075
what_time_is_now@data       cstackBANK0  002B
what_time_is_now@rv         cstackBANK0  002A
wtemp0                      (abs)        007E
