MPASM  5.48                     08_EEPROM.ASM   3-20-2013  15:53:42         PAGE  1


LOC  OBJECT CODE     LINE SOURCE TEXT
  VALUE

                      00001 ; Include file, change directory if needed
Warning[205]: Found directive in column 1. (include)
                      00002 include "p12f675.inc"
                      00001         LIST
                      00002 
                      00003 ;==========================================================================
                      00004 ;  MPASM PIC12F675 processor include
                      00005 ; 
                      00006 ;  (c) Copyright 1999-2012 Microchip Technology, All rights reserved
                      00007 ;==========================================================================
                      00008 
                      00366         LIST
                      00003 
                      00004 
                      00005 ;#########################
                      00006 ;## uC Chip settings    ##
                      00007 ;#########################
                      00008 ;   Set User ID Memory
2000   0005 0005 000A 00009         __idlocs                0x55aa
       000A 
                      00010 ;   Set configuration bits using definitions from the include file, p16f84.inc
2007   3FD4           00011         __config        _INTRC_OSC_NOCLKOUT & _WDT_OFF & _CP_OFF & _MCLRE_OFF
                      00012 
                      00013 
                      00014 
                      00015 ;#########################
                      00016 ;## PIN DEFINITIONS     ##
                      00017 ;#########################
                      00018 ; GP5   I/O             ()
                      00019 ; GP4   I/O                     ()
                      00020 ; GP3   nMCLR           ()
                      00021 ; GP2   I/O                     ()
                      00022 ; GP1   OUT     LED1    ()
                      00023 ; GP0   OUT LED0        ()
  0000003F            00024 LED1_P          EQU     b'111111'
                      00025 
                      00026 
                      00027 ; OUTPUTs
  00000000            00028 LED1    EQU     GP0
  00000001            00029 LED0    EQU GP1
                      00030 
                      00031 
                      00032 ; INPUTs
                      00033 
                      00034 ;#########################
                      00035 ;## CONSTANTS           ##
                      00036 ;#########################
                      00037 
                      00038 ;#########################
                      00039 ;## GLOBAL REGISTERS    ##
                      00040 ;#########################
  00000020            00041 tmp             EQU     0x20            ; Temporary register
                      00042 
MPASM  5.48                     08_EEPROM.ASM   3-20-2013  15:53:42         PAGE  2


LOC  OBJECT CODE     LINE SOURCE TEXT
  VALUE

  00000024            00043 array   EQU     0x24            ; data array
                      00044 
                      00045 
                      00046 ; inside band 1
  00000030            00047 e2_wr_addr      equ     0x30
  00000031            00048 e2_wr_data      equ     0x31
                      00049 
                      00050 ;#########################
                      00051 ;## MACROS              ##
                      00052 ;#########################
                      00053 #define PAGE0           bcf     STATUS,RP0      ; [M] Switch to page 0 in RAM
                      00054 #define PAGE1           bsf     STATUS,RP0      ; [M] Switch to page 1 in RAM
                      00055 
                      00056 ;###################################################################################
                      00057 ;###################################################################################
                      00058 ;####                   S       T       A       R       T                       ####
                      00059 ;###################################################################################
                      00060 ;###################################################################################
                      00061 ;Initialization of basic registers
                      00062 Reset_vector    org     0x0000
0000   2???           00063         goto    Init
                      00064 
                      00065 Irq_vector      org     0x0004
                      00066         ; test EEPROM interrupt status
0004   1683           00067         PAGE1
                      00068 ;       btfss   PIR1,7
                      00069 ;       goto    Irq_end
0005   30FF           00070         movlw   0xFF
0006   0085           00071         movwf   GPIO
0007                  00072 Irq_end
                      00073 
0007   2???           00074         goto $
0008   0009           00075     retfie
                      00076 
0009                  00077 Init
                      00078 ; ##############
                      00079 ; Adjust osc calibration constant, read it from EEPROM
                      00080 
0009   1683           00081         PAGE1                           ; Set page 0
000A   23FF           00082         call    0x3ff
Message[302]: Register in operand not in bank 0.  Ensure that bank bits are correct.
000B   0090           00083         movwf   OSCCAL                  ; Read osc calibration value and set it
000C   1283           00084         PAGE0
                      00085 
000D   3007           00086         movlw   0x07
000E   0099           00087         movwf   CMCON           ; Disable comparator
                      00088 
000F   1683           00089     PAGE1
0010   3000           00090     movlw   0x00
Message[302]: Register in operand not in bank 0.  Ensure that bank bits are correct.
0011   009F           00091     movwf   ANSEL           ; Disable ADC
                      00092 
0012   3000           00093     movlw   0x00
MPASM  5.48                     08_EEPROM.ASM   3-20-2013  15:53:42         PAGE  3


LOC  OBJECT CODE     LINE SOURCE TEXT
  VALUE

0013   009F           00094     movwf   ADCON0          ; Disable ADC
0014   1283           00095     PAGE0
                      00096 
0015   0064           00097         clrwdt                          ; Reset watchdog
                      00098 ;###############
                      00099 ; Set Inputs/Outputs
0016   1683           00100         PAGE1
0017   30C0           00101         movlw   ~(LED1_P)               ; LED1 will be output
Message[302]: Register in operand not in bank 0.  Ensure that bank bits are correct.
0018   0085           00102         movwf   TRISIO                  ; Set direction
0019   1283           00103         PAGE0
                      00104 ; Set GPIO
001A   3000           00105         movlw   0x00
001B   0085           00106         movwf   GPIO                    ; Turn off LED1 and 2 leds, turn on LED3
                      00107 
                      00108 
                      00109 ; Set interrupts
001C   1683           00110         PAGE1
Message[302]: Register in operand not in bank 0.  Ensure that bank bits are correct.
001D   178C           00111         bsf             PIE1, EEIE
001E   170B           00112         bsf             INTCON,PEIE
001F   178B           00113         bsf             INTCON,GIE
0020   1283           00114         PAGE0
0021   138C           00115         bcf             PIR1, EEIF
                      00116 ;###############
                      00117 ; Read LED state from EEPROM and invert it:
0022   1683           00118         PAGE1
0023   3010           00119         movlw   0x10            ; Read address 0x10 from EEPROM
Message[302]: Register in operand not in bank 0.  Ensure that bank bits are correct.
0024   009B           00120         movwf   EEADR
Message[302]: Register in operand not in bank 0.  Ensure that bank bits are correct.
0025   141C           00121         bsf             EECON1,RD
Message[302]: Register in operand not in bank 0.  Ensure that bank bits are correct.
0026   081A           00122         movf    EEDATA,W        ; and store it to tmp
                      00123 ;       movwf   array + 0       ; 0th byte
                      00124 ; Set GPIO state
0027   1283           00125         PAGE0
0028   3A01           00126         xorlw   0x01
0029   00A4           00127         movwf   array + 0
                      00128 ;       movwf   GPIO
                      00129 
                      00130 ; Write back the inverted value:
                      00131         ; load parameters
002A   1683           00132         PAGE1
002B   00B1           00133         movwf   e2_wr_data
002C   3010           00134         movlw   0x10            ; write to 0x10
002D   00B0           00135         movwf   e2_wr_addr
                      00136 
002E   1683           00137         PAGE1
002F   2???           00138         call    e2_write_byte
0030   1283           00139         PAGE0
                      00140 
                      00141 
MPASM  5.48                     08_EEPROM.ASM   3-20-2013  15:53:42         PAGE  4


LOC  OBJECT CODE     LINE SOURCE TEXT
  VALUE

                      00142 ;Loop:                                  ; Wait until the value is written successfully
                      00143 ;       btfsc   EECON1,WR
                      00144 ;       goto    Loop
                      00145 ;       movlw   0x02
                      00146 ;       movwf   GPIO
                      00147 
                      00148 ;       movlw   0x00
                      00149 ;       movwf   GPIO
                      00150 ;#######################################
                      00151 ; MAIN LOOP
                      00152 ;#######################################
0031   2???           00153         goto    $
                      00154 
                      00155 ; Writes byte to eeprom memory. Don't check.
                      00156 ; @param e2_wr_addr     address
                      00157 ; @param e2_wr_data     data
                      00158 ; must be in bank 1
0032                  00159 e2_write_byte:
                      00160 
0032   0831           00161         movfw   e2_wr_data
Message[302]: Register in operand not in bank 0.  Ensure that bank bits are correct.
0033   009A           00162         movwf   EEDATA          ; Set EEPROM address and data to write
0034   0830           00163         movfw   e2_wr_addr
Message[302]: Register in operand not in bank 0.  Ensure that bank bits are correct.
0035   009B           00164         movwf   EEADR
0036   138C           00165         bcf             PIR1,EEIF
Message[302]: Register in operand not in bank 0.  Ensure that bank bits are correct.
0037   151C           00166         bsf     EECON1,WREN     ; Enable write
0038   138B           00167         bcf             INTCON,GIE      ; disable interrupts
                      00168 
0039   3055           00169         movlw   0x55            ; Unlock write
Message[302]: Register in operand not in bank 0.  Ensure that bank bits are correct.
003A   009D           00170         movwf   EECON2
003B   30AA           00171         movlw   0xAA
Message[302]: Register in operand not in bank 0.  Ensure that bank bits are correct.
003C   009D           00172         movwf   EECON2
Message[302]: Register in operand not in bank 0.  Ensure that bank bits are correct.
003D   149C           00173         bsf             EECON1,WR       ; Write
                      00174 
003E   178B           00175         bsf             INTCON,GIE      ; enable interrupts
003F   0008           00176         return
                      00177 
                      00178 
3FD4                  00179         end
MPASM  5.48                     08_EEPROM.ASM   3-20-2013  15:53:42         PAGE  5


SYMBOL TABLE
  LABEL                             VALUE 

ADCON0                            0000001F
ADCS0                             00000004
ADCS1                             00000005
ADCS2                             00000006
ADFM                              00000007
ADIE                              00000006
ADIF                              00000006
ADON                              00000000
ADRESH                            0000001E
ADRESL                            0000009E
ANS0                              00000000
ANS1                              00000001
ANS2                              00000002
ANS3                              00000003
ANSEL                             0000009F
C                                 00000000
CAL0                              00000002
CAL1                              00000003
CAL2                              00000004
CAL3                              00000005
CAL4                              00000006
CAL5                              00000007
CHS0                              00000002
CHS1                              00000003
CINV                              00000004
CIS                               00000003
CM0                               00000000
CM1                               00000001
CM2                               00000002
CMCON                             00000019
CMIE                              00000003
CMIF                              00000003
COUT                              00000006
DC                                00000001
EEADR                             0000009B
EECON1                            0000009C
EECON2                            0000009D
EEDAT                             0000009A
EEDATA                            0000009A
EEIE                              00000007
EEIF                              00000007
F                                 00000001
FSR                               00000004
GIE                               00000007
GO                                00000001
GO_DONE                           00000001
GO_NOT_DONE                       00000001
GP0                               00000000
GP1                               00000001
GP2                               00000002
GP3                               00000003
GP4                               00000004
GP5                               00000005
MPASM  5.48                     08_EEPROM.ASM   3-20-2013  15:53:42         PAGE  6


SYMBOL TABLE
  LABEL                             VALUE 

GPIE                              00000003
GPIF                              00000000
GPIO                              00000005
GPIO0                             00000000
GPIO1                             00000001
GPIO2                             00000002
GPIO3                             00000003
GPIO4                             00000004
GPIO5                             00000005
INDF                              00000000
INTCON                            0000000B
INTE                              00000004
INTEDG                            00000006
INTF                              00000001
IOC                               00000096
IOC0                              00000000
IOC1                              00000001
IOC2                              00000002
IOC3                              00000003
IOC4                              00000004
IOC5                              00000005
IOCB                              00000096
IOCB0                             00000000
IOCB1                             00000001
IOCB2                             00000002
IOCB3                             00000003
IOCB4                             00000004
IOCB5                             00000005
IRP                               00000007
Init                              00000009
Irq_end                           00000007
Irq_vector                        00000004
LED0                              00000001
LED1                              00000000
LED1_P                            0000003F
NOT_BOD                           00000000
NOT_BOR                           00000000
NOT_DONE                          00000001
NOT_GPPU                          00000007
NOT_PD                            00000003
NOT_POR                           00000001
NOT_T1SYNC                        00000002
NOT_TO                            00000004
OPTION_REG                        00000081
OSCCAL                            00000090
PAGE0                             bcf     STATUS,RP0
PAGE1                             bsf     STATUS,RP0
PCL                               00000002
PCLATH                            0000000A
PCON                              0000008E
PEIE                              00000006
PIE1                              0000008C
PIR1                              0000000C
MPASM  5.48                     08_EEPROM.ASM   3-20-2013  15:53:42         PAGE  7


SYMBOL TABLE
  LABEL                             VALUE 

PS0                               00000000
PS1                               00000001
PS2                               00000002
PSA                               00000003
RD                                00000000
RP0                               00000005
RP1                               00000006
Reset_vector                      00000000
STATUS                            00000003
T0CS                              00000005
T0IE                              00000005
T0IF                              00000002
T0SE                              00000004
T1CKPS0                           00000004
T1CKPS1                           00000005
T1CON                             00000010
T1IE                              00000000
T1IF                              00000000
T1OSCEN                           00000003
TMR0                              00000001
TMR0IE                            00000005
TMR0IF                            00000002
TMR1                              0000000E
TMR1CS                            00000001
TMR1GE                            00000006
TMR1H                             0000000F
TMR1IE                            00000000
TMR1IF                            00000000
TMR1L                             0000000E
TMR1ON                            00000000
TRISIO                            00000085
TRISIO0                           00000000
TRISIO1                           00000001
TRISIO2                           00000002
TRISIO3                           00000003
TRISIO4                           00000004
TRISIO5                           00000005
VCFG                              00000006
VR0                               00000000
VR1                               00000001
VR2                               00000002
VR3                               00000003
VRCON                             00000099
VREN                              00000007
VRR                               00000005
W                                 00000000
WPU                               00000095
WPU0                              00000000
WPU1                              00000001
WPU2                              00000002
WPU4                              00000004
WPU5                              00000005
WR                                00000001
MPASM  5.48                     08_EEPROM.ASM   3-20-2013  15:53:42         PAGE  8


SYMBOL TABLE
  LABEL                             VALUE 

WREN                              00000002
WRERR                             00000003
Z                                 00000002
_.org_1_0007                      00000007
_.org_1_0031                      00000031
_BODEN_OFF                        00003FBF
_BODEN_ON                         00003FFF
_BOREN_OFF                        00003FBF
_BOREN_ON                         00003FFF
_CONFIG                           00002007
_CPD_OFF                          00003FFF
_CPD_ON                           00003EFF
_CP_OFF                           00003FFF
_CP_ON                            00003F7F
_DEVID1                           00002006
_EC_OSC                           00003FFB
_EXTRC_OSC_CLKOUT                 00003FFF
_EXTRC_OSC_NOCLKOUT               00003FFE
_FOSC_EC                          00003FFB
_FOSC_EXTRCCLK                    00003FFF
_FOSC_EXTRCIO                     00003FFE
_FOSC_HS                          00003FFA
_FOSC_INTRCCLK                    00003FFD
_FOSC_INTRCIO                     00003FFC
_FOSC_LP                          00003FF8
_FOSC_XT                          00003FF9
_HS_OSC                           00003FFA
_IDLOC0                           00002000
_IDLOC1                           00002001
_IDLOC2                           00002002
_IDLOC3                           00002003
_INTRC_OSC_CLKOUT                 00003FFD
_INTRC_OSC_NOCLKOUT               00003FFC
_LP_OSC                           00003FF8
_MCLRE_OFF                        00003FDF
_MCLRE_ON                         00003FFF
_PWRTE_OFF                        00003FFF
_PWRTE_ON                         00003FEF
_WDTE_OFF                         00003FF7
_WDTE_ON                          00003FFF
_WDT_OFF                          00003FF7
_WDT_ON                           00003FFF
_XT_OSC                           00003FF9
__12F675                          00000001
__DEBUG                           
array                             00000024
e2_wr_addr                        00000030
e2_wr_data                        00000031
e2_write_byte                     00000032
tmp                               00000020

MPASM  5.48                     08_EEPROM.ASM   3-20-2013  15:53:42         PAGE  9





Errors   :     0
Warnings :     1 reported,     0 suppressed
Messages :    13 reported,     0 suppressed

